	.arch armv8-a
	.file	"upper.c"
// GNU C17 (Debian 12.2.0-14) version 12.2.0 (aarch64-linux-gnu)
//	compiled by GNU C version 12.2.0, GMP version 6.2.1, MPFR version 4.1.1-p1, MPC version 1.3.1, isl version isl-0.25-GMP

// warning: MPFR header version 4.1.1-p1 differs from library version 4.2.0.
// GGC heuristics: --param ggc-min-expand=100 --param ggc-min-heapsize=131072
// options passed: -mlittle-endian -mabi=lp64 -g -O3 -fasynchronous-unwind-tables
	.text
.Ltext0:
	.file 0 "/home/pi/dev/assembly/ssmith_arm64/chapter_15" "upper.c"
	.align	2
	.p2align 4,,11
	.global	mytoupper
	.type	mytoupper, %function
mytoupper:
.LVL0:
.LFB11:
	.file 1 "upper.c"
	.loc 1 4 1 view -0
	.cfi_startproc
	.loc 1 5 2 view .LVU1
	.loc 1 6 2 view .LVU2
// upper.c:4: {
	.loc 1 4 1 is_stmt 0 view .LVU3
	mov	x4, x1	// outstr, outstr
.LVL1:
.L5:
	.loc 1 8 2 is_stmt 1 view .LVU4
	.loc 1 10 3 view .LVU5
	.loc 1 13 4 view .LVU6
// upper.c:10: 		cur = *instr;
	.loc 1 10 7 is_stmt 0 view .LVU7
	ldrb	w2, [x0]	// cur, MEM[(char *)instr_19]
.LVL2:
	.loc 1 11 3 is_stmt 1 view .LVU8
	.loc 1 15 3 view .LVU9
	.loc 1 15 3 view .LVU10
// upper.c:11: 		if ((cur >= 'a') && (cur <='z')) 
	.loc 1 11 20 is_stmt 0 view .LVU11
	sub	w3, w2, #97	// tmp100, cur,
// upper.c:13: 			cur = cur - ('a'-'A');
	.loc 1 13 8 view .LVU12
	sub	w5, w2, #32	// tmp102, cur,
// upper.c:11: 		if ((cur >= 'a') && (cur <='z')) 
	.loc 1 11 6 view .LVU13
	and	w3, w3, 255	// tmp101, tmp100
	cmp	w3, 25	// tmp101,
	bhi	.L2		//,
.LVL3:
.L7:
// upper.c:16: 		instr++;	
	.loc 1 16 8 view .LVU14
	add	x0, x0, 1	// instr, instr,
.LVL4:
// upper.c:15: 		*outstr++ = cur;
	.loc 1 15 13 view .LVU15
	strb	w5, [x4], 1	// tmp102, MEM[(char *)outstr_28 + -1B]
	.loc 1 16 3 is_stmt 1 view .LVU16
.LVL5:
	.loc 1 17 15 view .LVU17
	.loc 1 8 2 view .LVU18
	.loc 1 10 3 view .LVU19
	.loc 1 13 4 view .LVU20
// upper.c:10: 		cur = *instr;
	.loc 1 10 7 is_stmt 0 view .LVU21
	ldrb	w2, [x0]	// cur, MEM[(char *)instr_19]
.LVL6:
	.loc 1 11 3 is_stmt 1 view .LVU22
	.loc 1 15 3 view .LVU23
	.loc 1 15 3 view .LVU24
// upper.c:11: 		if ((cur >= 'a') && (cur <='z')) 
	.loc 1 11 20 is_stmt 0 view .LVU25
	sub	w3, w2, #97	// tmp100, cur,
// upper.c:13: 			cur = cur - ('a'-'A');
	.loc 1 13 8 view .LVU26
	sub	w5, w2, #32	// tmp102, cur,
// upper.c:11: 		if ((cur >= 'a') && (cur <='z')) 
	.loc 1 11 6 view .LVU27
	and	w3, w3, 255	// tmp101, tmp100
	cmp	w3, 25	// tmp101,
	bls	.L7		//,
.LVL7:
.L2:
// upper.c:15: 		*outstr++ = cur;
	.loc 1 15 13 view .LVU28
	strb	w2, [x4], 1	// cur, MEM[(char *)outstr_25 + -1B]
	.loc 1 16 3 is_stmt 1 view .LVU29
.LVL8:
	.loc 1 17 15 view .LVU30
// upper.c:16: 		instr++;	
	.loc 1 16 8 is_stmt 0 view .LVU31
	add	x0, x0, 1	// instr, instr,
.LVL9:
// upper.c:17: 	} while (cur != '\0');
	.loc 1 17 15 view .LVU32
	cbnz	w2, .L5	// cur,
	.loc 1 18 2 is_stmt 1 view .LVU33
// upper.c:19: }
	.loc 1 19 1 is_stmt 0 view .LVU34
	sub	w0, w4, w1	//, outstr, outstr
.LVL10:
	.loc 1 19 1 view .LVU35
	ret	
	.cfi_endproc
.LFE11:
	.size	mytoupper, .-mytoupper
	.section	.rodata.str1.8,"aMS",@progbits,1
	.align	3
.LC0:
	.string	"Input: %s\nOutput: %s\n"
	.section	.text.startup,"ax",@progbits
	.align	2
	.p2align 4,,11
	.global	main
	.type	main, %function
main:
.LFB12:
	.loc 1 27 1 is_stmt 1 view -0
	.cfi_startproc
	.loc 1 28 2 view .LVU37
// upper.c:27: {
	.loc 1 27 1 is_stmt 0 view .LVU38
	stp	x29, x30, [sp, -16]!	//,,,
	.cfi_def_cfa_offset 16
	.cfi_offset 29, -16
	.cfi_offset 30, -8
// upper.c:28: 	mytoupper(tstStr, outStr);
	.loc 1 28 2 view .LVU39
	adrp	x1, .LANCHOR0	// tmp99,
	adrp	x2, .LANCHOR1	// tmp114,
// upper.c:27: {
	.loc 1 27 1 view .LVU40
	mov	x29, sp	//,
// upper.c:28: 	mytoupper(tstStr, outStr);
	.loc 1 28 2 view .LVU41
	ldr	x1, [x1, #:lo12:.LANCHOR0]	// tstStr.1_1, tstStr
.LVL11:
.LBB4:
.LBI4:
	.loc 1 3 5 is_stmt 1 view .LVU42
.LBB5:
	.loc 1 5 2 view .LVU43
	.loc 1 6 2 view .LVU44
// upper.c:15: 		*outstr++ = cur;
	.loc 1 15 13 is_stmt 0 view .LVU45
	add	x2, x2, :lo12:.LANCHOR1	// tmp115, tmp114,
.LBE5:
.LBE4:
// upper.c:28: 	mytoupper(tstStr, outStr);
	.loc 1 28 2 view .LVU46
	mov	x0, 0	// ivtmp.20,
.LVL12:
.L12:
.LBB7:
.LBB6:
	.loc 1 8 2 is_stmt 1 view .LVU47
	.loc 1 10 3 view .LVU48
	.loc 1 13 4 view .LVU49
// upper.c:10: 		cur = *instr;
	.loc 1 10 7 is_stmt 0 view .LVU50
	ldrb	w3, [x1, x0]	// cur, MEM[(char *)tstStr.1_1 + ivtmp.20_16 * 1]
.LVL13:
	.loc 1 11 3 is_stmt 1 view .LVU51
	.loc 1 15 3 view .LVU52
	.loc 1 15 3 view .LVU53
// upper.c:11: 		if ((cur >= 'a') && (cur <='z')) 
	.loc 1 11 20 is_stmt 0 view .LVU54
	sub	w4, w3, #97	// tmp100, cur,
// upper.c:13: 			cur = cur - ('a'-'A');
	.loc 1 13 8 view .LVU55
	sub	w5, w3, #32	// tmp104, cur,
// upper.c:11: 		if ((cur >= 'a') && (cur <='z')) 
	.loc 1 11 6 view .LVU56
	and	w4, w4, 255	// tmp101, tmp100
	cmp	w4, 25	// tmp101,
	bhi	.L9		//,
.LVL14:
.L14:
// upper.c:15: 		*outstr++ = cur;
	.loc 1 15 13 view .LVU57
	strb	w5, [x0, x2]	// tmp104, MEM[(char *)&outStr + ivtmp.20_16 * 1]
	.loc 1 16 3 is_stmt 1 view .LVU58
.LVL15:
	.loc 1 17 15 view .LVU59
	add	x0, x0, 1	// ivtmp.20, ivtmp.20,
.LVL16:
	.loc 1 8 2 view .LVU60
	.loc 1 10 3 view .LVU61
	.loc 1 13 4 view .LVU62
// upper.c:10: 		cur = *instr;
	.loc 1 10 7 is_stmt 0 view .LVU63
	ldrb	w3, [x1, x0]	// cur, MEM[(char *)tstStr.1_1 + ivtmp.20_16 * 1]
.LVL17:
	.loc 1 11 3 is_stmt 1 view .LVU64
	.loc 1 15 3 view .LVU65
	.loc 1 15 3 view .LVU66
// upper.c:11: 		if ((cur >= 'a') && (cur <='z')) 
	.loc 1 11 20 is_stmt 0 view .LVU67
	sub	w4, w3, #97	// tmp100, cur,
// upper.c:13: 			cur = cur - ('a'-'A');
	.loc 1 13 8 view .LVU68
	sub	w5, w3, #32	// tmp104, cur,
// upper.c:11: 		if ((cur >= 'a') && (cur <='z')) 
	.loc 1 11 6 view .LVU69
	and	w4, w4, 255	// tmp101, tmp100
	cmp	w4, 25	// tmp101,
	bls	.L14		//,
.LVL18:
.L9:
// upper.c:15: 		*outstr++ = cur;
	.loc 1 15 13 view .LVU70
	strb	w3, [x0, x2]	// cur, MEM[(char *)&outStr + ivtmp.20_16 * 1]
	.loc 1 16 3 is_stmt 1 view .LVU71
.LVL19:
	.loc 1 17 15 view .LVU72
	add	x0, x0, 1	// ivtmp.20, ivtmp.20,
.LVL20:
	.loc 1 17 15 is_stmt 0 view .LVU73
	cbnz	w3, .L12	// cur,
	.loc 1 18 2 is_stmt 1 view .LVU74
.LVL21:
	.loc 1 18 2 is_stmt 0 view .LVU75
.LBE6:
.LBE7:
	.loc 1 29 2 is_stmt 1 view .LVU76
	adrp	x0, .LC0	// tmp112,
	add	x0, x0, :lo12:.LC0	//, tmp112,
	bl	printf		//
.LVL22:
	.loc 1 31 2 view .LVU77
// upper.c:32: }
	.loc 1 32 1 is_stmt 0 view .LVU78
	mov	w0, 0	//,
	ldp	x29, x30, [sp], 16	//,,,
	.cfi_restore 30
	.cfi_restore 29
	.cfi_def_cfa_offset 0
	ret	
	.cfi_endproc
.LFE12:
	.size	main, .-main
	.global	outStr
	.global	tstStr
	.section	.rodata.str1.8
	.align	3
.LC1:
	.string	"This is a test!"
	.bss
	.align	4
	.set	.LANCHOR1,. + 0
	.type	outStr, %object
	.size	outStr, 250
outStr:
	.zero	250
	.section	.data.rel.local,"aw"
	.align	3
	.set	.LANCHOR0,. + 0
	.type	tstStr, %object
	.size	tstStr, 8
tstStr:
	.xword	.LC1
	.text
.Letext0:
	.file 2 "/usr/include/stdio.h"
	.section	.note.GNU-stack,"",@progbits
